target datalayout = "e-m:e-p270:32:32-p271:32:32-p272:64:64-i64:64-i128:128-f80:128-n8:16:32:64-S128"
target triple = "x86_64-pc-linux-gnu"

%struct._GC_arrays = type { i64, i64, i64, ptr, i64, i64, i64, i64, i64, i64, i64, i64, i64, i64, ptr, ptr, ptr, ptr, ptr, ptr, ptr, ptr, i32, i32, i32, i64, i64, i64, i64, i64, ptr, ptr, ptr, i64, i64, i32, i64, i64, ptr, i64, %struct.dl_hashtbl_s, %struct.dl_hashtbl_s, %struct.fnlz_roots_s, i32, ptr, i64, i64, i32, i32, i64, i64, i64, ptr, [64 x ptr], [8 x i8], [64 x ptr], [129 x ptr], [129 x ptr], [129 x ptr], [129 x ptr], [2049 x i64], [129 x ptr], [4096 x i8], [4096 x i64], [4096 x i64], ptr, [2048 x %struct.roots], [512 x %struct.exclusion], [2048 x ptr] }
%struct.dl_hashtbl_s = type { ptr, i64, i32 }
%struct.fnlz_roots_s = type { ptr, ptr }
%struct.roots = type { ptr, ptr, ptr, i32 }
%struct.exclusion = type { ptr, ptr }
%struct.LeafDescriptor = type { i64, i64, i64, i64 }
%struct.SequenceDescriptor = type { i64, ptr, ptr }

@GC_arrays = global %struct._GC_arrays zeroinitializer, align 8
@GC_manual_vdb = internal global i32 0, align 4
@GC_bm_table = internal global [32 x i64] zeroinitializer, align 16

; Function Attrs: nounwind uwtable
define internal void @GC_dirty_inner(ptr noundef %0) #0 {
  %2 = alloca ptr, align 8
  %3 = alloca i64, align 8
  %4 = alloca i64, align 8
  %5 = alloca i64, align 8
  store ptr %0, ptr %2, align 8
  %6 = load ptr, ptr %2, align 8
  %7 = ptrtoint ptr %6 to i64
  %8 = lshr i64 %7, 12
  %9 = and i64 %8, 262143
  store i64 %9, ptr %3, align 8
  %10 = load i64, ptr %3, align 8
  %11 = lshr i64 %10, 6
  %12 = getelementptr inbounds %struct._GC_arrays, ptr @GC_arrays, i32 0, i32 64
  %13 = getelementptr inbounds [4096 x i64], ptr %12, i64 0, i64 %11
  %14 = load i64, ptr %3, align 8
  %15 = and i64 %14, 63
  %16 = shl i64 1, %15
  store i64 %16, ptr %4, align 8
  %17 = load i64, ptr %4, align 8
  %18 = atomicrmw volatile or ptr %13, i64 %17 monotonic, align 8
  %19 = or i64 %18, %17
  store i64 %19, ptr %5, align 8
  ret void
}

; Function Attrs: nounwind allocsize(0) uwtable
define noalias ptr @GC_malloc(i64 noundef %0) #3 {
  %2 = alloca i64, align 8
  store i64 %0, ptr %2, align 8
  %3 = load i64, ptr %2, align 8
  %4 = call noalias ptr @GC_malloc_kind(i64 noundef %3, i32 noundef 1) #22
  ret ptr %4
}

; Function Attrs: nounwind allocsize(0) uwtable
define noalias ptr @GC_malloc_atomic(i64 noundef %0) #3 {
  %2 = alloca i64, align 8
  store i64 %0, ptr %2, align 8
  %3 = load i64, ptr %2, align 8
  %4 = call noalias ptr @GC_malloc_kind(i64 noundef %3, i32 noundef 0) #22
  ret ptr %4
}

; Function Attrs: nounwind uwtable
define internal ptr @GC_make_sequence_descriptor(ptr noundef %0, ptr noundef %1) #0 {
  %3 = alloca ptr, align 8
  %4 = alloca ptr, align 8
  %5 = alloca ptr, align 8
  %6 = alloca ptr, align 8
  store ptr %0, ptr %4, align 8
  store ptr %1, ptr %5, align 8
  %7 = call noalias ptr @GC_malloc(i64 noundef 24) #22
  store ptr %7, ptr %6, align 8
  %8 = load ptr, ptr %6, align 8
  %9 = icmp eq ptr null, %8
  %10 = zext i1 %9 to i32
  %11 = sext i32 %10 to i64
  %12 = icmp ne i64 %11, 0
  br i1 %12, label %13, label %14

13:                                               ; preds = %2
  store ptr null, ptr %3, align 8
  br label %32

14:                                               ; preds = %2
  %15 = load ptr, ptr %6, align 8
  %16 = getelementptr inbounds %struct.SequenceDescriptor, ptr %15, i32 0, i32 0
  store i64 3, ptr %16, align 8
  %17 = load ptr, ptr %4, align 8
  %18 = load ptr, ptr %6, align 8
  %19 = getelementptr inbounds %struct.SequenceDescriptor, ptr %18, i32 0, i32 1
  store ptr %17, ptr %19, align 8
  %20 = load ptr, ptr %5, align 8
  %21 = load ptr, ptr %6, align 8
  %22 = getelementptr inbounds %struct.SequenceDescriptor, ptr %21, i32 0, i32 2
  store ptr %20, ptr %22, align 8
  %23 = load i32, ptr @GC_manual_vdb, align 4
  %24 = icmp ne i32 %23, 0
  br i1 %24, label %25, label %27

25:                                               ; preds = %14
  %26 = load ptr, ptr %6, align 8
  call void @GC_dirty_inner(ptr noundef %26)
  br label %28

27:                                               ; preds = %14
  br label %28

28:                                               ; preds = %27, %25
  %29 = load ptr, ptr %4, align 8
  call void asm sideeffect " ", "X,~{memory},~{dirflag},~{fpsr},~{flags}"(ptr %29) #18, !srcloc !231
  %30 = load ptr, ptr %5, align 8
  call void asm sideeffect " ", "X,~{memory},~{dirflag},~{fpsr},~{flags}"(ptr %30) #18, !srcloc !232
  %31 = load ptr, ptr %6, align 8
  store ptr %31, ptr %3, align 8
  br label %32

32:                                               ; preds = %28, %13
  %33 = load ptr, ptr %3, align 8
  ret ptr %33
}

; Function Attrs: nounwind uwtable
define internal ptr @GC_make_leaf_descriptor(i64 noundef %0, i64 noundef %1, i64 noundef %2) #0 {
  %4 = alloca ptr, align 8
  %5 = alloca i64, align 8
  %6 = alloca i64, align 8
  %7 = alloca i64, align 8
  %8 = alloca ptr, align 8
  store i64 %0, ptr %5, align 8
  store i64 %1, ptr %6, align 8
  store i64 %2, ptr %7, align 8
  %9 = call noalias ptr @GC_malloc_atomic(i64 noundef 32) #22
  store ptr %9, ptr %8, align 8
  %10 = load ptr, ptr %8, align 8
  %11 = icmp eq ptr null, %10
  %12 = zext i1 %11 to i32
  %13 = sext i32 %12 to i64
  %14 = icmp ne i64 %13, 0
  br i1 %14, label %15, label %16

15:                                               ; preds = %3
  store ptr null, ptr %4, align 8
  br label %29

16:                                               ; preds = %3
  %17 = load ptr, ptr %8, align 8
  %18 = getelementptr inbounds %struct.LeafDescriptor, ptr %17, i32 0, i32 0
  store i64 1, ptr %18, align 8
  %19 = load i64, ptr %5, align 8
  %20 = load ptr, ptr %8, align 8
  %21 = getelementptr inbounds %struct.LeafDescriptor, ptr %20, i32 0, i32 1
  store i64 %19, ptr %21, align 8
  %22 = load i64, ptr %6, align 8
  %23 = load ptr, ptr %8, align 8
  %24 = getelementptr inbounds %struct.LeafDescriptor, ptr %23, i32 0, i32 2
  store i64 %22, ptr %24, align 8
  %25 = load i64, ptr %7, align 8
  %26 = load ptr, ptr %8, align 8
  %27 = getelementptr inbounds %struct.LeafDescriptor, ptr %26, i32 0, i32 3
  store i64 %25, ptr %27, align 8
  %28 = load ptr, ptr %8, align 8
  store ptr %28, ptr %4, align 8
  br label %29

29:                                               ; preds = %16, %15
  %30 = load ptr, ptr %4, align 8
  ret ptr %30
}

; Function Attrs: nounwind uwtable
define internal i64 @GC_double_descr(i64 noundef %0, i64 noundef %1) #0 {
  %3 = alloca i64, align 8
  %4 = alloca i64, align 8
  store i64 %0, ptr %3, align 8
  store i64 %1, ptr %4, align 8
  %5 = load i64, ptr %3, align 8
  %6 = and i64 %5, 3
  %7 = icmp eq i64 %6, 0
  br i1 %7, label %8, label %13

8:                                                ; preds = %2
  %9 = load i64, ptr %3, align 8
  %10 = lshr i64 %9, 3
  %11 = getelementptr inbounds [32 x i64], ptr @GC_bm_table, i64 0, i64 %10
  %12 = load i64, ptr %11, align 8
  store i64 %12, ptr %3, align 8
  br label %13

13:                                               ; preds = %8, %2
  %14 = load i64, ptr %3, align 8
  %15 = and i64 %14, -4
  %16 = load i64, ptr %4, align 8
  %17 = lshr i64 %15, %16
  %18 = load i64, ptr %3, align 8
  %19 = or i64 %18, %17
  store i64 %19, ptr %3, align 8
  %20 = load i64, ptr %3, align 8
  ret i64 %20
}

; Function Attrs: nounwind uwtable
define internal i32 @GC_make_array_descriptor(i64 noundef %0, i64 noundef %1, i64 noundef %2, ptr noundef %3, ptr noundef %4, ptr noundef %5) #0 {
  %7 = alloca i32, align 4
  %8 = alloca i64, align 8
  %9 = alloca i64, align 8
  %10 = alloca i64, align 8
  %11 = alloca ptr, align 8
  %12 = alloca ptr, align 8
  %13 = alloca ptr, align 8
  %14 = alloca ptr, align 8
  %15 = alloca ptr, align 8
  %16 = alloca i32, align 4
  store i64 %0, ptr %8, align 8
  store i64 %1, ptr %9, align 8
  store i64 %2, ptr %10, align 8
  store ptr %3, ptr %11, align 8
  store ptr %4, ptr %12, align 8
  store ptr %5, ptr %13, align 8
  %17 = load i64, ptr %10, align 8
  %18 = and i64 %17, 3
  %19 = icmp eq i64 %18, 0
  br i1 %19, label %20, label %36

20:                                               ; preds = %6
  %21 = load i64, ptr %10, align 8
  %22 = load i64, ptr %9, align 8
  %23 = icmp eq i64 %21, %22
  br i1 %23, label %24, label %29

24:                                               ; preds = %20
  %25 = load i64, ptr %8, align 8
  %26 = load i64, ptr %10, align 8
  %27 = mul i64 %25, %26
  %28 = load ptr, ptr %11, align 8
  store i64 %27, ptr %28, align 8
  store i32 0, ptr %7, align 4
  br label %155

29:                                               ; preds = %20
  %30 = load i64, ptr %10, align 8
  %31 = icmp eq i64 0, %30
  br i1 %31, label %32, label %34

32:                                               ; preds = %29
  %33 = load ptr, ptr %11, align 8
  store i64 0, ptr %33, align 8
  store i32 0, ptr %7, align 4
  br label %155

34:                                               ; preds = %29
  br label %35

35:                                               ; preds = %34
  br label %36

36:                                               ; preds = %35, %6
  %37 = load i64, ptr %8, align 8
  %38 = icmp ule i64 %37, 50
  br i1 %38, label %39, label %52

39:                                               ; preds = %36
  %40 = load i64, ptr %8, align 8
  %41 = icmp ule i64 %40, 1
  br i1 %41, label %42, label %51

42:                                               ; preds = %39
  %43 = load i64, ptr %8, align 8
  %44 = icmp eq i64 %43, 1
  br i1 %44, label %45, label %47

45:                                               ; preds = %42
  %46 = load i64, ptr %10, align 8
  br label %48

47:                                               ; preds = %42
  br label %48

48:                                               ; preds = %47, %45
  %49 = phi i64 [ %46, %45 ], [ 0, %47 ]
  %50 = load ptr, ptr %11, align 8
  store i64 %49, ptr %50, align 8
  store i32 0, ptr %7, align 4
  br label %155

51:                                               ; preds = %39
  br label %145

52:                                               ; preds = %36
  %53 = load i64, ptr %9, align 8
  %54 = icmp ule i64 %53, 31
  br i1 %54, label %55, label %144

55:                                               ; preds = %52
  %56 = load i64, ptr %10, align 8
  %57 = and i64 %56, 3
  %58 = icmp ne i64 %57, 2
  br i1 %58, label %59, label %144

59:                                               ; preds = %55
  %60 = load i64, ptr %9, align 8
  %61 = and i64 %60, 7
  %62 = icmp eq i64 %61, 0
  br i1 %62, label %63, label %144

63:                                               ; preds = %59
  %64 = load i64, ptr %8, align 8
  %65 = udiv i64 %64, 2
  %66 = load i64, ptr %9, align 8
  %67 = mul i64 2, %66
  %68 = load i64, ptr %10, align 8
  %69 = load i64, ptr %9, align 8
  %70 = lshr i64 %69, 3
  %71 = call i64 @GC_double_descr(i64 noundef %68, i64 noundef %70)
  %72 = load ptr, ptr %11, align 8
  %73 = load ptr, ptr %12, align 8
  %74 = load ptr, ptr %13, align 8
  %75 = call i32 @GC_make_array_descriptor(i64 noundef %65, i64 noundef %67, i64 noundef %71, ptr noundef %72, ptr noundef %73, ptr noundef %74)
  store i32 %75, ptr %16, align 4
  %76 = load i64, ptr %8, align 8
  %77 = and i64 %76, 1
  %78 = icmp eq i64 %77, 0
  br i1 %78, label %85, label %79

79:                                               ; preds = %63
  %80 = load i32, ptr %16, align 4
  %81 = icmp eq i32 -1, %80
  %82 = zext i1 %81 to i32
  %83 = sext i32 %82 to i64
  %84 = icmp ne i64 %83, 0
  br i1 %84, label %85, label %87

85:                                               ; preds = %79, %63
  %86 = load i32, ptr %16, align 4
  store i32 %86, ptr %7, align 4
  br label %155

87:                                               ; preds = %79
  %88 = load i64, ptr %9, align 8
  %89 = load i64, ptr %10, align 8
  %90 = call ptr @GC_make_leaf_descriptor(i64 noundef %88, i64 noundef 1, i64 noundef %89)
  store ptr %90, ptr %14, align 8
  %91 = load ptr, ptr %14, align 8
  %92 = icmp eq ptr null, %91
  %93 = zext i1 %92 to i32
  %94 = sext i32 %93 to i64
  %95 = icmp ne i64 %94, 0
  br i1 %95, label %96, label %97

96:                                               ; preds = %87
  store i32 -1, ptr %7, align 4
  br label %155

97:                                               ; preds = %87
  %98 = load i32, ptr %16, align 4
  %99 = icmp eq i32 2, %98
  br i1 %99, label %100, label %103

100:                                              ; preds = %97
  %101 = load ptr, ptr %12, align 8
  %102 = load ptr, ptr %101, align 8
  store ptr %102, ptr %15, align 8
  br label %131

103:                                              ; preds = %97
  %104 = load i32, ptr %16, align 4
  %105 = icmp eq i32 0, %104
  br i1 %105, label %106, label %111

106:                                              ; preds = %103
  %107 = load i64, ptr %9, align 8
  %108 = load ptr, ptr %11, align 8
  %109 = load i64, ptr %108, align 8
  %110 = call ptr @GC_make_leaf_descriptor(i64 noundef %107, i64 noundef 1, i64 noundef %109)
  br label %122

111:                                              ; preds = %103
  %112 = load ptr, ptr %13, align 8
  %113 = getelementptr inbounds %struct.LeafDescriptor, ptr %112, i32 0, i32 1
  %114 = load i64, ptr %113, align 8
  %115 = load ptr, ptr %13, align 8
  %116 = getelementptr inbounds %struct.LeafDescriptor, ptr %115, i32 0, i32 2
  %117 = load i64, ptr %116, align 8
  %118 = load ptr, ptr %13, align 8
  %119 = getelementptr inbounds %struct.LeafDescriptor, ptr %118, i32 0, i32 3
  %120 = load i64, ptr %119, align 8
  %121 = call ptr @GC_make_leaf_descriptor(i64 noundef %114, i64 noundef %117, i64 noundef %120)
  br label %122

122:                                              ; preds = %111, %106
  %123 = phi ptr [ %110, %106 ], [ %121, %111 ]
  store ptr %123, ptr %15, align 8
  %124 = load ptr, ptr %15, align 8
  %125 = icmp eq ptr null, %124
  %126 = zext i1 %125 to i32
  %127 = sext i32 %126 to i64
  %128 = icmp ne i64 %127, 0
  br i1 %128, label %129, label %130

129:                                              ; preds = %122
  store i32 -1, ptr %7, align 4
  br label %155

130:                                              ; preds = %122
  br label %131

131:                                              ; preds = %130, %100
  %132 = load ptr, ptr %15, align 8
  %133 = load ptr, ptr %14, align 8
  %134 = call ptr @GC_make_sequence_descriptor(ptr noundef %132, ptr noundef %133)
  %135 = load ptr, ptr %12, align 8
  store ptr %134, ptr %135, align 8
  %136 = load ptr, ptr %12, align 8
  %137 = load ptr, ptr %136, align 8
  %138 = icmp eq ptr null, %137
  %139 = zext i1 %138 to i32
  %140 = sext i32 %139 to i64
  %141 = icmp ne i64 %140, 0
  br i1 %141, label %142, label %143

142:                                              ; preds = %131
  store i32 -1, ptr %7, align 4
  br label %155

143:                                              ; preds = %131
  store i32 2, ptr %7, align 4
  br label %155

144:                                              ; preds = %59, %55, %52
  br label %145

145:                                              ; preds = %144, %51
  %146 = load i64, ptr %9, align 8
  %147 = load ptr, ptr %13, align 8
  %148 = getelementptr inbounds %struct.LeafDescriptor, ptr %147, i32 0, i32 1
  store i64 %146, ptr %148, align 8
  %149 = load i64, ptr %8, align 8
  %150 = load ptr, ptr %13, align 8
  %151 = getelementptr inbounds %struct.LeafDescriptor, ptr %150, i32 0, i32 2
  store i64 %149, ptr %151, align 8
  %152 = load i64, ptr %10, align 8
  %153 = load ptr, ptr %13, align 8
  %154 = getelementptr inbounds %struct.LeafDescriptor, ptr %153, i32 0, i32 3
  store i64 %152, ptr %154, align 8
  store i32 1, ptr %7, align 4
  br label %155

155:                                              ; preds = %145, %143, %142, %129, %96, %85, %48, %32, %24
  %156 = load i32, ptr %7, align 4
  ret i32 %156
}