; Function Attrs: nounwind uwtable
define internal fastcc range(i32 -1, 3) i32 @GC_make_array_descriptor(i64 noundef range(i64 1, 0) %0, i64 noundef range(i64 1, 0) %1, i64 noundef %2, ptr noundef captures(none) %3, ptr noundef captures(none) %4, ptr noundef captures(none) %5) unnamed_addr #1 {
  %7 = and i64 %2, 3
  %8 = icmp eq i64 %7, 0
  br i1 %8, label %9, label %16

9:                                                ; preds = %6
  %10 = icmp eq i64 %2, %1
  br i1 %10, label %11, label %13

11:                                               ; preds = %9
  %12 = mul i64 %2, %0
  store i64 %12, ptr %3, align 8
  br label %GC_make_leaf_descriptor.exit.thread

13:                                               ; preds = %9
  %14 = icmp eq i64 %2, 0
  br i1 %14, label %15, label %16

15:                                               ; preds = %13
  store i64 0, ptr %3, align 8
  br label %GC_make_leaf_descriptor.exit.thread

16:                                               ; preds = %13, %6
  %17 = icmp ult i64 %0, 51
  br i1 %17, label %18, label %21

18:                                               ; preds = %16
  %19 = icmp samesign ult i64 %0, 2
  br i1 %19, label %20, label %84

20:                                               ; preds = %18
  store i64 %2, ptr %3, align 8
  br label %GC_make_leaf_descriptor.exit.thread

21:                                               ; preds = %16
  %.not = icmp ne i64 %7, 2
  %22 = and i64 %1, -25
  %23 = icmp eq i64 %22, 0
  %or.cond56 = and i1 %23, %.not
  br i1 %or.cond56, label %24, label %84

24:                                               ; preds = %21
  %25 = lshr i64 %0, 1
  %26 = shl nuw nsw i64 %1, 1
  %27 = lshr exact i64 %1, 3
  br i1 %8, label %28, label %GC_double_descr.exit

28:                                               ; preds = %24
  %29 = lshr i64 %2, 3
  %30 = getelementptr inbounds nuw [32 x i64], ptr @GC_bm_table, i64 0, i64 %29
  %31 = load i64, ptr %30, align 8
  br label %GC_double_descr.exit

GC_double_descr.exit:                             ; preds = %24, %28
  %.0.i = phi i64 [ %31, %28 ], [ %2, %24 ]
  %32 = and i64 %.0.i, -4
  %33 = lshr i64 %32, %27
  %34 = or i64 %33, %.0.i
  %35 = tail call fastcc i32 @GC_make_array_descriptor(i64 noundef %25, i64 noundef %26, i64 noundef %34, ptr noundef %3, ptr noundef %4, ptr noundef %5)
  %36 = and i64 %0, 1
  %37 = icmp eq i64 %36, 0
  %38 = icmp eq i32 %35, -1
  %or.cond57 = select i1 %37, i1 true, i1 %38
  br i1 %or.cond57, label %GC_make_leaf_descriptor.exit.thread, label %39

39:                                               ; preds = %GC_double_descr.exit
  %40 = tail call noalias dereferenceable_or_null(32) ptr @GC_malloc_kind(i64 noundef 32, i32 noundef 0) #51
  %41 = icmp eq ptr %40, null
  br i1 %41, label %GC_make_leaf_descriptor.exit.thread, label %42

42:                                               ; preds = %39
  store i64 1, ptr %40, align 8
  %43 = getelementptr inbounds nuw i8, ptr %40, i64 8
  store i64 %1, ptr %43, align 8
  %44 = getelementptr inbounds nuw i8, ptr %40, i64 16
  store i64 1, ptr %44, align 8
  %45 = getelementptr inbounds nuw i8, ptr %40, i64 24
  store i64 %2, ptr %45, align 8
  switch i32 %35, label %56 [
    i32 2, label %46
    i32 0, label %48
  ]

46:                                               ; preds = %42
  %47 = load ptr, ptr %4, align 8
  br label %GC_make_leaf_descriptor.exit58

48:                                               ; preds = %42
  %49 = load i64, ptr %3, align 8
  %50 = tail call noalias dereferenceable_or_null(32) ptr @GC_malloc_kind(i64 noundef 32, i32 noundef 0) #51
  %51 = icmp eq ptr %50, null
  br i1 %51, label %GC_make_leaf_descriptor.exit.thread, label %52

52:                                               ; preds = %48
  store i64 1, ptr %50, align 8
  %53 = getelementptr inbounds nuw i8, ptr %50, i64 8
  store i64 %1, ptr %53, align 8
  %54 = getelementptr inbounds nuw i8, ptr %50, i64 16
  store i64 1, ptr %54, align 8
  %55 = getelementptr inbounds nuw i8, ptr %50, i64 24
  store i64 %49, ptr %55, align 8
  br label %GC_make_leaf_descriptor.exit58

56:                                               ; preds = %42
  %57 = getelementptr inbounds nuw i8, ptr %5, i64 8
  %58 = load i64, ptr %57, align 8
  %59 = getelementptr inbounds nuw i8, ptr %5, i64 16
  %60 = load i64, ptr %59, align 8
  %61 = getelementptr inbounds nuw i8, ptr %5, i64 24
  %62 = load i64, ptr %61, align 8
  %63 = tail call noalias dereferenceable_or_null(32) ptr @GC_malloc_kind(i64 noundef 32, i32 noundef 0) #51
  %64 = icmp eq ptr %63, null
  br i1 %64, label %GC_make_leaf_descriptor.exit.thread, label %65

65:                                               ; preds = %56
  store i64 1, ptr %63, align 8
  %66 = getelementptr inbounds nuw i8, ptr %63, i64 8
  store i64 %58, ptr %66, align 8
  %67 = getelementptr inbounds nuw i8, ptr %63, i64 16
  store i64 %60, ptr %67, align 8
  %68 = getelementptr inbounds nuw i8, ptr %63, i64 24
  store i64 %62, ptr %68, align 8
  br label %GC_make_leaf_descriptor.exit58

GC_make_leaf_descriptor.exit58:                   ; preds = %52, %65, %46
  %.048 = phi ptr [ %47, %46 ], [ %50, %52 ], [ %63, %65 ]
  %69 = tail call noalias dereferenceable_or_null(24) ptr @GC_malloc_kind(i64 noundef 24, i32 noundef 1) #51
  %70 = icmp eq ptr %69, null
  br i1 %70, label %GC_make_sequence_descriptor.exit, label %71

71:                                               ; preds = %GC_make_leaf_descriptor.exit58
  store i64 3, ptr %69, align 8
  %72 = getelementptr inbounds nuw i8, ptr %69, i64 8
  store ptr %.048, ptr %72, align 8
  %73 = getelementptr inbounds nuw i8, ptr %69, i64 16
  store ptr %40, ptr %73, align 8
  %.b.i = load i1, ptr @GC_manual_vdb, align 4
  br i1 %.b.i, label %74, label %83

74:                                               ; preds = %71
  %75 = ptrtoint ptr %69 to i64
  %76 = lshr i64 %75, 12
  %77 = lshr i64 %75, 18
  %78 = and i64 %77, 4095
  %79 = getelementptr inbounds nuw [4096 x i64], ptr getelementptr inbounds nuw (i8, ptr @GC_arrays, i64 59896), i64 0, i64 %78
  %80 = and i64 %76, 63
  %81 = shl nuw i64 1, %80
  %82 = atomicrmw volatile or ptr %79, i64 %81 monotonic, align 8
  br label %83

83:                                               ; preds = %74, %71
  tail call void asm sideeffect " ", "X,~{memory},~{dirflag},~{fpsr},~{flags}"(ptr %.048) #41, !srcloc !106
  tail call void asm sideeffect " ", "X,~{memory},~{dirflag},~{fpsr},~{flags}"(ptr nonnull %40) #41, !srcloc !107
  br label %GC_make_sequence_descriptor.exit

GC_make_sequence_descriptor.exit:                 ; preds = %GC_make_leaf_descriptor.exit58, %83
  %. = phi i32 [ -1, %GC_make_leaf_descriptor.exit58 ], [ 2, %83 ]
  store ptr %69, ptr %4, align 8
  br label %GC_make_leaf_descriptor.exit.thread

84:                                               ; preds = %21, %18
  %85 = getelementptr inbounds nuw i8, ptr %5, i64 8
  store i64 %1, ptr %85, align 8
  %86 = getelementptr inbounds nuw i8, ptr %5, i64 16
  store i64 %0, ptr %86, align 8
  %87 = getelementptr inbounds nuw i8, ptr %5, i64 24
  store i64 %2, ptr %87, align 8
  br label %GC_make_leaf_descriptor.exit.thread

GC_make_leaf_descriptor.exit.thread:              ; preds = %56, %48, %39, %GC_make_sequence_descriptor.exit, %GC_double_descr.exit, %84, %20, %15, %11
  %.0 = phi i32 [ 0, %11 ], [ 0, %15 ], [ 0, %20 ], [ 1, %84 ], [ %35, %GC_double_descr.exit ], [ %., %GC_make_sequence_descriptor.exit ], [ -1, %39 ], [ -1, %48 ], [ -1, %56 ]
  ret i32 %.0
}